; Function Attrs: mustprogress nounwind uwtable
define internal void @"_ZN5boost3log11v2_mt_posix3aux14light_functionIFNSt7__cxx1112basic_stringIcSt11char_traitsIcESaIcEEEjEE4implIZNS1_5sinks9anonymous23parse_file_name_patternERKNS_10filesystem4pathERSG_SJ_RSB_E3$_2E12destroy_implEPv"(ptr noundef %0) #11 align 2 personality ptr @__gxx_personality_v0 {
  %2 = icmp eq ptr %0, null
  br i1 %2, label %31, label %3

3:                                                ; preds = %1
  %4 = getelementptr inbounds nuw i8, ptr %0, i64 416
  %5 = load ptr, ptr %4, align 8, !tbaa !13
  %6 = getelementptr inbounds nuw i8, ptr %0, i64 432
  %7 = icmp eq ptr %5, %6
  br i1 %7, label %_ZNKSt7__cxx1112basic_stringIcSt11char_traitsIcESaIcEE11_M_is_localEv.exit.thread.i.i.i.i, label %_ZNKSt7__cxx1112basic_stringIcSt11char_traitsIcESaIcEE11_M_is_localEv.exit.i.i.i.i

_ZNKSt7__cxx1112basic_stringIcSt11char_traitsIcESaIcEE11_M_is_localEv.exit.thread.i.i.i.i: ; preds = %3
  %8 = getelementptr inbounds nuw i8, ptr %0, i64 424
  %9 = load i64, ptr %8, align 8, !tbaa !16
  %10 = icmp ult i64 %9, 16
  tail call void @llvm.assume(i1 %10)
  br label %_ZNSt7__cxx1112basic_stringIcSt11char_traitsIcESaIcEED2Ev.exit.i.i

_ZNKSt7__cxx1112basic_stringIcSt11char_traitsIcESaIcEE11_M_is_localEv.exit.i.i.i.i: ; preds = %3
  %11 = load i64, ptr %6, align 8, !tbaa !15
  %12 = add i64 %11, 1
  tail call void @_ZdlPvm(ptr noundef %5, i64 noundef %12) #32
  br label %_ZNSt7__cxx1112basic_stringIcSt11char_traitsIcESaIcEED2Ev.exit.i.i

_ZNSt7__cxx1112basic_stringIcSt11char_traitsIcESaIcEED2Ev.exit.i.i: ; preds = %_ZNKSt7__cxx1112basic_stringIcSt11char_traitsIcESaIcEE11_M_is_localEv.exit.i.i.i.i, %_ZNKSt7__cxx1112basic_stringIcSt11char_traitsIcESaIcEE11_M_is_localEv.exit.thread.i.i.i.i
  %13 = getelementptr inbounds nuw i8, ptr %0, i64 40
  %14 = load ptr, ptr @_ZTTNSt7__cxx1119basic_ostringstreamIcSt11char_traitsIcESaIcEEE, align 8
  store ptr %14, ptr %13, align 8, !tbaa !49
  %15 = load ptr, ptr getelementptr inbounds (i8, ptr @_ZTTNSt7__cxx1119basic_ostringstreamIcSt11char_traitsIcESaIcEEE, i64 24), align 8
  %16 = getelementptr i8, ptr %14, i64 -24
  %17 = load i64, ptr %16, align 8
  %18 = getelementptr inbounds i8, ptr %13, i64 %17
  store ptr %15, ptr %18, align 8, !tbaa !49
  %19 = getelementptr inbounds nuw i8, ptr %0, i64 48
  store ptr getelementptr inbounds inrange(-16, 112) (i8, ptr @_ZTVNSt7__cxx1115basic_stringbufIcSt11char_traitsIcESaIcEEE, i64 16), ptr %19, align 8, !tbaa !49
  %20 = getelementptr inbounds nuw i8, ptr %0, i64 120
  %21 = load ptr, ptr %20, align 8, !tbaa !13
  %22 = getelementptr inbounds nuw i8, ptr %0, i64 136
  %23 = icmp eq ptr %21, %22
  br i1 %23, label %_ZNKSt7__cxx1112basic_stringIcSt11char_traitsIcESaIcEE11_M_is_localEv.exit.thread.i.i.i.i.i.i.i.i, label %_ZNKSt7__cxx1112basic_stringIcSt11char_traitsIcESaIcEE11_M_is_localEv.exit.i.i.i.i.i.i.i.i

_ZNKSt7__cxx1112basic_stringIcSt11char_traitsIcESaIcEE11_M_is_localEv.exit.thread.i.i.i.i.i.i.i.i: ; preds = %_ZNSt7__cxx1112basic_stringIcSt11char_traitsIcESaIcEED2Ev.exit.i.i
  %24 = getelementptr inbounds nuw i8, ptr %0, i64 128
  %25 = load i64, ptr %24, align 8, !tbaa !16
  %26 = icmp ult i64 %25, 16
  tail call void @llvm.assume(i1 %26)
  br label %"_ZN5boost3log11v2_mt_posix3aux14light_functionIFNSt7__cxx1112basic_stringIcSt11char_traitsIcESaIcEEEjEE4implIZNS1_5sinks9anonymous23parse_file_name_patternERKNS_10filesystem4pathERSG_SJ_RSB_E3$_2ED2Ev.exit"

_ZNKSt7__cxx1112basic_stringIcSt11char_traitsIcESaIcEE11_M_is_localEv.exit.i.i.i.i.i.i.i.i: ; preds = %_ZNSt7__cxx1112basic_stringIcSt11char_traitsIcESaIcEED2Ev.exit.i.i
  %27 = load i64, ptr %22, align 8, !tbaa !15
  %28 = add i64 %27, 1
  tail call void @_ZdlPvm(ptr noundef %21, i64 noundef %28) #32
  br label %"_ZN5boost3log11v2_mt_posix3aux14light_functionIFNSt7__cxx1112basic_stringIcSt11char_traitsIcESaIcEEEjEE4implIZNS1_5sinks9anonymous23parse_file_name_patternERKNS_10filesystem4pathERSG_SJ_RSB_E3$_2ED2Ev.exit"

"_ZN5boost3log11v2_mt_posix3aux14light_functionIFNSt7__cxx1112basic_stringIcSt11char_traitsIcESaIcEEEjEE4implIZNS1_5sinks9anonymous23parse_file_name_patternERKNS_10filesystem4pathERSG_SJ_RSB_E3$_2ED2Ev.exit": ; preds = %_ZNKSt7__cxx1112basic_stringIcSt11char_traitsIcESaIcEE11_M_is_localEv.exit.thread.i.i.i.i.i.i.i.i, %_ZNKSt7__cxx1112basic_stringIcSt11char_traitsIcESaIcEE11_M_is_localEv.exit.i.i.i.i.i.i.i.i
  store ptr getelementptr inbounds inrange(-16, 112) (i8, ptr @_ZTVSt15basic_streambufIcSt11char_traitsIcEE, i64 16), ptr %19, align 8, !tbaa !49
  %29 = getelementptr inbounds nuw i8, ptr %0, i64 104
  tail call void @_ZNSt6localeD1Ev(ptr noundef nonnull align 8 dereferenceable(8) %29) #29
  %30 = getelementptr inbounds i8, ptr %0, i64 152
  tail call void @_ZNSt8ios_baseD2Ev(ptr noundef nonnull align 8 dereferenceable(264) %30) #29
  tail call void @_ZdlPvm(ptr noundef nonnull %0, i64 noundef 448) #32
  br label %31

31:                                               ; preds = %"_ZN5boost3log11v2_mt_posix3aux14light_functionIFNSt7__cxx1112basic_stringIcSt11char_traitsIcESaIcEEEjEE4implIZNS1_5sinks9anonymous23parse_file_name_patternERKNS_10filesystem4pathERSG_SJ_RSB_E3$_2ED2Ev.exit", %1
  ret void
}